; Function Attrs: nounwind uwtable
define i32 @Java_sun_awt_X11_XWindow_getKeySymForAWTKeyCode(ptr nocapture noundef readnone %0, ptr nocapture noundef readnone %1, i32 noundef %2) local_unnamed_addr #0 {
  %4 = icmp eq i32 %2, 262
  br i1 %4, label %5, label %7

5:                                                ; preds = %3
  %6 = tail call fastcc signext i8 @keyboardHasKanaLockKey()
  %.not.i = icmp eq i8 %6, 0
  br i1 %.not.i, label %7, label %awt_getX11KeySym.exit

7:                                                ; preds = %5, %3
  %8 = load i32, ptr @keymapTable, align 16
  %.not911.i = icmp eq i32 %8, 0
  br i1 %.not911.i, label %awt_getX11KeySym.exit, label %.lr.ph.i.preheader

.lr.ph.i.preheader:                               ; preds = %7
  %9 = icmp eq i32 %8, %2
  br i1 %9, label %.lr.ph.i._crit_edge, label %.lr.ph

.lr.ph:                                           ; preds = %.lr.ph.i.preheader, %.lr.ph.i
  %indvars.iv.i2 = phi i64 [ %indvars.iv.next.i, %.lr.ph.i ], [ 0, %.lr.ph.i.preheader ]
  %indvars.iv.next.i = add nuw nsw i64 %indvars.iv.i2, 1
  %10 = getelementptr inbounds [264 x %struct.KEYMAP_ENTRY], ptr @keymapTable, i64 0, i64 %indvars.iv.next.i
  %11 = load i32, ptr %10, align 8
  %.not9.i = icmp eq i32 %11, 0
  br i1 %.not9.i, label %awt_getX11KeySym.exit, label %.lr.ph.i, !llvm.loop !6

.lr.ph.i:                                         ; preds = %.lr.ph
  %12 = icmp eq i32 %11, %2
  br i1 %12, label %.lr.ph.i._crit_edge, label %.lr.ph, !llvm.loop !6

.lr.ph.i._crit_edge:                              ; preds = %.lr.ph.i, %.lr.ph.i.preheader
  %.lcssa = phi ptr [ @keymapTable, %.lr.ph.i.preheader ], [ %10, %.lr.ph.i ]
  %13 = getelementptr inbounds i8, ptr %.lcssa, i64 8
  %14 = load i64, ptr %13, align 8
  %15 = trunc i64 %14 to i32
  br label %awt_getX11KeySym.exit

awt_getX11KeySym.exit:                            ; preds = %.lr.ph, %5, %7, %.lr.ph.i._crit_edge
  %.07.i = phi i32 [ %15, %.lr.ph.i._crit_edge ], [ 65406, %5 ], [ 0, %7 ], [ 0, %.lr.ph ]
  ret i32 %.07.i
}